target datalayout = "e-m:e-p270:32:32-p271:32:32-p272:64:64-i64:64-i128:128-f80:128-n8:16:32:64-S128"
target triple = "x86_64-pc-linux-gnu"

%struct.archive_read = type { %struct.archive, ptr, i32, i64, i64, %struct.archive_read_client, [16 x %struct.archive_read_filter_bidder], ptr, i32, i64, i32, i32, [16 x %struct.archive_format_descriptor], ptr, ptr, ptr, %struct.anon }
%struct.archive = type { i32, i32, ptr, i32, ptr, i32, i32, ptr, %struct.archive_string, ptr, i32, i32, ptr, ptr, i64, i64, i64, i8, i64 }
%struct.archive_string = type { ptr, i64, i64 }
%struct.archive_read_client = type { ptr, ptr, ptr, ptr, ptr, ptr, i32, i32, i64, ptr }
%struct.archive_read_filter_bidder = type { ptr, ptr, ptr }
%struct.archive_format_descriptor = type { ptr, ptr, ptr, ptr, ptr, ptr, ptr, ptr, ptr, ptr, ptr }
%struct.anon = type { ptr, ptr, i32, ptr, ptr }
%struct.rar = type { i32, i64, [2 x i8], [4 x i8], i8, i8, i32, i64, i64, i64, i64, i32, ptr, ptr, i64, i64, [8 x i8], i64, i64, i64, i64, i64, i64, i64, i64, i64, i64, i64, i64, i8, i32, i32, ptr, i32, i8, i8, i64, i32, i8, ptr, i32, i32, i8, %struct.huffman_code, %struct.huffman_code, %struct.huffman_code, %struct.huffman_code, [404 x i8], %struct.lzss, i32, i32, [4 x i32], i32, i32, i8, %struct.rar_filters, i8, i8, i8, i32, %struct.CPpmd7, %struct.CPpmd7z_RangeDec, %struct.IByteIn, i32, ptr, ptr, ptr, ptr, %struct.rar_br, i32 }
%struct.huffman_code = type { ptr, i32, i32, i32, i32, i32, ptr }
%struct.lzss = type { ptr, i32, i64 }
%struct.rar_filters = type { ptr, ptr, ptr, i64, i32, i64, ptr, i64 }
%struct.CPpmd7 = type { ptr, ptr, ptr, i32, i32, i32, i32, i32, i32, i32, i32, i32, ptr, ptr, ptr, ptr, ptr, i32, [38 x i8], [128 x i8], [38 x i32], [256 x i8], [256 x i8], [256 x i8], %struct.CPpmd_See, [25 x [16 x %struct.CPpmd_See]], [128 x [64 x i16]] }
%struct.CPpmd_See = type { i16, i8, i8 }
%struct.CPpmd7z_RangeDec = type { %struct.IPpmd7_RangeDec, i32, i32, i32, i32, ptr }
%struct.IPpmd7_RangeDec = type { ptr, ptr, ptr }
%struct.IByteIn = type { ptr, ptr }
%struct.rar_br = type { i64, i32, i64, ptr }

; Function Attrs: nounwind uwtable
define internal i32 @archive_read_format_rar_read_data_skip(ptr noundef %0) #0 {
  %2 = alloca i32, align 4
  %3 = alloca ptr, align 8
  %4 = alloca ptr, align 8
  %5 = alloca i64, align 8
  %6 = alloca i32, align 4
  store ptr %0, ptr %3, align 8
  %7 = load ptr, ptr %3, align 8
  %8 = getelementptr inbounds %struct.archive_read, ptr %7, i32 0, i32 13
  %9 = load ptr, ptr %8, align 8
  %10 = getelementptr inbounds %struct.archive_format_descriptor, ptr %9, i32 0, i32 0
  %11 = load ptr, ptr %10, align 8
  store ptr %11, ptr %4, align 8
  %12 = load ptr, ptr %4, align 8
  %13 = getelementptr inbounds %struct.rar, ptr %12, i32 0, i32 23
  %14 = load i64, ptr %13, align 8
  %15 = icmp sgt i64 %14, 0
  br i1 %15, label %16, label %24

16:                                               ; preds = %1
  %17 = load ptr, ptr %3, align 8
  %18 = load ptr, ptr %4, align 8
  %19 = getelementptr inbounds %struct.rar, ptr %18, i32 0, i32 23
  %20 = load i64, ptr %19, align 8
  %21 = call i64 @__archive_read_consume(ptr noundef %17, i64 noundef %20)
  %22 = load ptr, ptr %4, align 8
  %23 = getelementptr inbounds %struct.rar, ptr %22, i32 0, i32 23
  store i64 0, ptr %23, align 8
  br label %24

24:                                               ; preds = %16, %1
  %25 = load ptr, ptr %4, align 8
  %26 = getelementptr inbounds %struct.rar, ptr %25, i32 0, i32 24
  %27 = load i64, ptr %26, align 8
  %28 = icmp sgt i64 %27, 0
  br i1 %28, label %29, label %39

29:                                               ; preds = %24
  %30 = load ptr, ptr %3, align 8
  %31 = load ptr, ptr %4, align 8
  %32 = getelementptr inbounds %struct.rar, ptr %31, i32 0, i32 24
  %33 = load i64, ptr %32, align 8
  %34 = call i64 @__archive_read_consume(ptr noundef %30, i64 noundef %33)
  store i64 %34, ptr %5, align 8
  %35 = load i64, ptr %5, align 8
  %36 = icmp slt i64 %35, 0
  br i1 %36, label %37, label %38

37:                                               ; preds = %29
  store i32 -30, ptr %2, align 4
  br label %74

38:                                               ; preds = %29
  br label %39

39:                                               ; preds = %38, %24
  %40 = load ptr, ptr %4, align 8
  %41 = getelementptr inbounds %struct.rar, ptr %40, i32 0, i32 0
  %42 = load i32, ptr %41, align 8
  %43 = and i32 %42, 1
  %44 = icmp ne i32 %43, 0
  br i1 %44, label %45, label %73

45:                                               ; preds = %39
  %46 = load ptr, ptr %4, align 8
  %47 = getelementptr inbounds %struct.rar, ptr %46, i32 0, i32 6
  %48 = load i32, ptr %47, align 8
  %49 = and i32 %48, 2
  %50 = icmp ne i32 %49, 0
  br i1 %50, label %51, label %73

51:                                               ; preds = %45
  %52 = load ptr, ptr %3, align 8
  %53 = load ptr, ptr %3, align 8
  %54 = getelementptr inbounds %struct.archive_read, ptr %53, i32 0, i32 1
  %55 = load ptr, ptr %54, align 8
  %56 = call i32 @archive_read_format_rar_read_header(ptr noundef %52, ptr noundef %55)
  store i32 %56, ptr %6, align 4
  %57 = load i32, ptr %6, align 4
  %58 = icmp eq i32 %57, 1
  br i1 %58, label %59, label %65

59:                                               ; preds = %51
  %60 = load ptr, ptr %3, align 8
  %61 = load ptr, ptr %3, align 8
  %62 = getelementptr inbounds %struct.archive_read, ptr %61, i32 0, i32 1
  %63 = load ptr, ptr %62, align 8
  %64 = call i32 @archive_read_format_rar_read_header(ptr noundef %60, ptr noundef %63)
  store i32 %64, ptr %6, align 4
  br label %65

65:                                               ; preds = %59, %51
  %66 = load i32, ptr %6, align 4
  %67 = icmp ne i32 %66, 0
  br i1 %67, label %68, label %70

68:                                               ; preds = %65
  %69 = load i32, ptr %6, align 4
  store i32 %69, ptr %2, align 4
  br label %74

70:                                               ; preds = %65
  %71 = load ptr, ptr %3, align 8
  %72 = call i32 @archive_read_format_rar_read_data_skip(ptr noundef %71)
  store i32 %72, ptr %2, align 4
  br label %74

73:                                               ; preds = %45, %39
  store i32 0, ptr %2, align 4
  br label %74

74:                                               ; preds = %73, %70, %68, %37
  %75 = load i32, ptr %2, align 4
  ret i32 %75
}