; Function Attrs: nounwind uwtable
define internal range(i32 -30, 2) i32 @archive_read_format_rar_read_data_skip(ptr noundef %0) #0 {
  %2 = getelementptr inbounds nuw i8, ptr %0, i64 2072
  %3 = getelementptr inbounds nuw i8, ptr %0, i64 144
  br label %tailrecurse

tailrecurse:                                      ; preds = %32, %1
  %4 = load ptr, ptr %2, align 8
  %5 = load ptr, ptr %4, align 8
  %6 = getelementptr inbounds nuw i8, ptr %5, i64 160
  %7 = load i64, ptr %6, align 8
  %8 = icmp sgt i64 %7, 0
  br i1 %8, label %9, label %11

9:                                                ; preds = %tailrecurse
  %10 = tail call i64 @__archive_read_consume(ptr noundef nonnull %0, i64 noundef %7) #19
  store i64 0, ptr %6, align 8
  br label %11

11:                                               ; preds = %9, %tailrecurse
  %12 = getelementptr inbounds nuw i8, ptr %5, i64 168
  %13 = load i64, ptr %12, align 8
  %14 = icmp sgt i64 %13, 0
  br i1 %14, label %15, label %18

15:                                               ; preds = %11
  %16 = tail call i64 @__archive_read_consume(ptr noundef nonnull %0, i64 noundef %13) #19
  %17 = icmp slt i64 %16, 0
  br i1 %17, label %33, label %18

18:                                               ; preds = %15, %11
  %19 = load i32, ptr %5, align 8
  %20 = and i32 %19, 1
  %.not = icmp eq i32 %20, 0
  br i1 %.not, label %33, label %21

21:                                               ; preds = %18
  %22 = getelementptr inbounds nuw i8, ptr %5, i64 24
  %23 = load i32, ptr %22, align 8
  %24 = and i32 %23, 2
  %.not23 = icmp eq i32 %24, 0
  br i1 %.not23, label %33, label %25

25:                                               ; preds = %21
  %26 = load ptr, ptr %3, align 8
  %27 = tail call i32 @archive_read_format_rar_read_header(ptr noundef nonnull %0, ptr noundef %26)
  %28 = icmp eq i32 %27, 1
  br i1 %28, label %29, label %32

29:                                               ; preds = %25
  %30 = load ptr, ptr %3, align 8
  %31 = tail call i32 @archive_read_format_rar_read_header(ptr noundef nonnull %0, ptr noundef %30)
  br label %32

32:                                               ; preds = %29, %25
  %.0 = phi i32 [ %31, %29 ], [ %27, %25 ]
  %.not24 = icmp eq i32 %.0, 0
  br i1 %.not24, label %tailrecurse, label %33

33:                                               ; preds = %18, %21, %32, %15
  %.019 = phi i32 [ -30, %15 ], [ %.0, %32 ], [ 0, %21 ], [ 0, %18 ]
  ret i32 %.019
}